target datalayout = "e-m:e-p270:32:32-p271:32:32-p272:64:64-i64:64-i128:128-f80:128-n8:16:32:64-S128"
target triple = "x86_64-pc-linux-gnu"

; Function Attrs: nounwind uwtable
define internal void @horizontal_compose_daub97i_8bit(ptr noundef %0, ptr noundef %1, i32 noundef %2) #0 {
  %4 = alloca ptr, align 8
  %5 = alloca ptr, align 8
  %6 = alloca i32, align 4
  %7 = alloca i32, align 4
  %8 = alloca i32, align 4
  %9 = alloca i32, align 4
  %10 = alloca i32, align 4
  %11 = alloca i32, align 4
  %12 = alloca ptr, align 8
  %13 = alloca ptr, align 8
  store ptr %0, ptr %4, align 8, !tbaa !44
  store ptr %1, ptr %5, align 8, !tbaa !44
  store i32 %2, ptr %6, align 4, !tbaa !11
  call void @llvm.lifetime.start.p0(i64 4, ptr %7) #5
  %14 = load i32, ptr %6, align 4, !tbaa !11
  %15 = ashr i32 %14, 1
  store i32 %15, ptr %7, align 4, !tbaa !11
  call void @llvm.lifetime.start.p0(i64 4, ptr %8) #5
  call void @llvm.lifetime.start.p0(i64 4, ptr %9) #5
  call void @llvm.lifetime.start.p0(i64 4, ptr %10) #5
  call void @llvm.lifetime.start.p0(i64 4, ptr %11) #5
  call void @llvm.lifetime.start.p0(i64 8, ptr %12) #5
  %16 = load ptr, ptr %4, align 8, !tbaa !44
  store ptr %16, ptr %12, align 8, !tbaa !48
  call void @llvm.lifetime.start.p0(i64 8, ptr %13) #5
  %17 = load ptr, ptr %5, align 8, !tbaa !44
  store ptr %17, ptr %13, align 8, !tbaa !48
  %18 = load ptr, ptr %12, align 8, !tbaa !48
  %19 = getelementptr inbounds i16, ptr %18, i64 0
  %20 = load i16, ptr %19, align 2, !tbaa !50
  %21 = sext i16 %20 to i32
  %22 = load ptr, ptr %12, align 8, !tbaa !48
  %23 = load i32, ptr %7, align 4, !tbaa !11
  %24 = sext i32 %23 to i64
  %25 = getelementptr inbounds i16, ptr %22, i64 %24
  %26 = load i16, ptr %25, align 2, !tbaa !50
  %27 = sext i16 %26 to i32
  %28 = load ptr, ptr %12, align 8, !tbaa !48
  %29 = load i32, ptr %7, align 4, !tbaa !11
  %30 = sext i32 %29 to i64
  %31 = getelementptr inbounds i16, ptr %28, i64 %30
  %32 = load i16, ptr %31, align 2, !tbaa !50
  %33 = sext i16 %32 to i32
  %34 = add i32 %27, %33
  %35 = mul i32 1817, %34
  %36 = add i32 %35, 2048
  %37 = ashr i32 %36, 12
  %38 = sub i32 %21, %37
  %39 = trunc i32 %38 to i16
  %40 = load ptr, ptr %13, align 8, !tbaa !48
  %41 = getelementptr inbounds i16, ptr %40, i64 0
  store i16 %39, ptr %41, align 2, !tbaa !50
  store i32 1, ptr %8, align 4, !tbaa !11
  br label %42

42:                                               ; preds = %115, %3
  %43 = load i32, ptr %8, align 4, !tbaa !11
  %44 = load i32, ptr %7, align 4, !tbaa !11
  %45 = icmp slt i32 %43, %44
  br i1 %45, label %46, label %118

46:                                               ; preds = %42
  %47 = load ptr, ptr %12, align 8, !tbaa !48
  %48 = load i32, ptr %8, align 4, !tbaa !11
  %49 = sext i32 %48 to i64
  %50 = getelementptr inbounds i16, ptr %47, i64 %49
  %51 = load i16, ptr %50, align 2, !tbaa !50
  %52 = sext i16 %51 to i32
  %53 = load ptr, ptr %12, align 8, !tbaa !48
  %54 = load i32, ptr %8, align 4, !tbaa !11
  %55 = load i32, ptr %7, align 4, !tbaa !11
  %56 = add nsw i32 %54, %55
  %57 = sub nsw i32 %56, 1
  %58 = sext i32 %57 to i64
  %59 = getelementptr inbounds i16, ptr %53, i64 %58
  %60 = load i16, ptr %59, align 2, !tbaa !50
  %61 = sext i16 %60 to i32
  %62 = load ptr, ptr %12, align 8, !tbaa !48
  %63 = load i32, ptr %8, align 4, !tbaa !11
  %64 = load i32, ptr %7, align 4, !tbaa !11
  %65 = add nsw i32 %63, %64
  %66 = sext i32 %65 to i64
  %67 = getelementptr inbounds i16, ptr %62, i64 %66
  %68 = load i16, ptr %67, align 2, !tbaa !50
  %69 = sext i16 %68 to i32
  %70 = add i32 %61, %69
  %71 = mul i32 1817, %70
  %72 = add i32 %71, 2048
  %73 = ashr i32 %72, 12
  %74 = sub i32 %52, %73
  %75 = trunc i32 %74 to i16
  %76 = load ptr, ptr %13, align 8, !tbaa !48
  %77 = load i32, ptr %8, align 4, !tbaa !11
  %78 = sext i32 %77 to i64
  %79 = getelementptr inbounds i16, ptr %76, i64 %78
  store i16 %75, ptr %79, align 2, !tbaa !50
  %80 = load ptr, ptr %12, align 8, !tbaa !48
  %81 = load i32, ptr %8, align 4, !tbaa !11
  %82 = load i32, ptr %7, align 4, !tbaa !11
  %83 = add nsw i32 %81, %82
  %84 = sub nsw i32 %83, 1
  %85 = sext i32 %84 to i64
  %86 = getelementptr inbounds i16, ptr %80, i64 %85
  %87 = load i16, ptr %86, align 2, !tbaa !50
  %88 = sext i16 %87 to i32
  %89 = load ptr, ptr %13, align 8, !tbaa !48
  %90 = load i32, ptr %8, align 4, !tbaa !11
  %91 = sub nsw i32 %90, 1
  %92 = sext i32 %91 to i64
  %93 = getelementptr inbounds i16, ptr %89, i64 %92
  %94 = load i16, ptr %93, align 2, !tbaa !50
  %95 = sext i16 %94 to i32
  %96 = load ptr, ptr %13, align 8, !tbaa !48
  %97 = load i32, ptr %8, align 4, !tbaa !11
  %98 = sext i32 %97 to i64
  %99 = getelementptr inbounds i16, ptr %96, i64 %98
  %100 = load i16, ptr %99, align 2, !tbaa !50
  %101 = sext i16 %100 to i32
  %102 = add i32 %95, %101
  %103 = mul i32 113, %102
  %104 = add i32 %103, 64
  %105 = ashr i32 %104, 7
  %106 = sub i32 %88, %105
  %107 = trunc i32 %106 to i16
  %108 = load ptr, ptr %13, align 8, !tbaa !48
  %109 = load i32, ptr %8, align 4, !tbaa !11
  %110 = load i32, ptr %7, align 4, !tbaa !11
  %111 = add nsw i32 %109, %110
  %112 = sub nsw i32 %111, 1
  %113 = sext i32 %112 to i64
  %114 = getelementptr inbounds i16, ptr %108, i64 %113
  store i16 %107, ptr %114, align 2, !tbaa !50
  br label %115

115:                                              ; preds = %46
  %116 = load i32, ptr %8, align 4, !tbaa !11
  %117 = add nsw i32 %116, 1
  store i32 %117, ptr %8, align 4, !tbaa !11
  br label %42, !llvm.loop !84

118:                                              ; preds = %42
  %119 = load ptr, ptr %12, align 8, !tbaa !48
  %120 = load i32, ptr %6, align 4, !tbaa !11
  %121 = sub nsw i32 %120, 1
  %122 = sext i32 %121 to i64
  %123 = getelementptr inbounds i16, ptr %119, i64 %122
  %124 = load i16, ptr %123, align 2, !tbaa !50
  %125 = sext i16 %124 to i32
  %126 = load ptr, ptr %13, align 8, !tbaa !48
  %127 = load i32, ptr %7, align 4, !tbaa !11
  %128 = sub nsw i32 %127, 1
  %129 = sext i32 %128 to i64
  %130 = getelementptr inbounds i16, ptr %126, i64 %129
  %131 = load i16, ptr %130, align 2, !tbaa !50
  %132 = sext i16 %131 to i32
  %133 = load ptr, ptr %13, align 8, !tbaa !48
  %134 = load i32, ptr %7, align 4, !tbaa !11
  %135 = sub nsw i32 %134, 1
  %136 = sext i32 %135 to i64
  %137 = getelementptr inbounds i16, ptr %133, i64 %136
  %138 = load i16, ptr %137, align 2, !tbaa !50
  %139 = sext i16 %138 to i32
  %140 = add i32 %132, %139
  %141 = mul i32 113, %140
  %142 = add i32 %141, 64
  %143 = ashr i32 %142, 7
  %144 = sub i32 %125, %143
  %145 = trunc i32 %144 to i16
  %146 = load ptr, ptr %13, align 8, !tbaa !48
  %147 = load i32, ptr %6, align 4, !tbaa !11
  %148 = sub nsw i32 %147, 1
  %149 = sext i32 %148 to i64
  %150 = getelementptr inbounds i16, ptr %146, i64 %149
  store i16 %145, ptr %150, align 2, !tbaa !50
  %151 = load ptr, ptr %13, align 8, !tbaa !48
  %152 = getelementptr inbounds i16, ptr %151, i64 0
  %153 = load i16, ptr %152, align 2, !tbaa !50
  %154 = sext i16 %153 to i32
  %155 = load ptr, ptr %13, align 8, !tbaa !48
  %156 = load i32, ptr %7, align 4, !tbaa !11
  %157 = sext i32 %156 to i64
  %158 = getelementptr inbounds i16, ptr %155, i64 %157
  %159 = load i16, ptr %158, align 2, !tbaa !50
  %160 = sext i16 %159 to i32
  %161 = load ptr, ptr %13, align 8, !tbaa !48
  %162 = load i32, ptr %7, align 4, !tbaa !11
  %163 = sext i32 %162 to i64
  %164 = getelementptr inbounds i16, ptr %161, i64 %163
  %165 = load i16, ptr %164, align 2, !tbaa !50
  %166 = sext i16 %165 to i32
  %167 = add i32 %160, %166
  %168 = mul i32 217, %167
  %169 = add i32 %168, 2048
  %170 = ashr i32 %169, 12
  %171 = add i32 %154, %170
  store i32 %171, ptr %11, align 4, !tbaa !11
  store i32 %171, ptr %9, align 4, !tbaa !11
  %172 = load i32, ptr %9, align 4, !tbaa !11
  %173 = xor i32 %172, -1
  %174 = ashr i32 %173, 1
  %175 = xor i32 %174, -1
  %176 = trunc i32 %175 to i16
  %177 = load ptr, ptr %12, align 8, !tbaa !48
  %178 = getelementptr inbounds i16, ptr %177, i64 0
  store i16 %176, ptr %178, align 2, !tbaa !50
  store i32 1, ptr %8, align 4, !tbaa !11
  br label %179

179:                                              ; preds = %250, %118
  %180 = load i32, ptr %8, align 4, !tbaa !11
  %181 = load i32, ptr %7, align 4, !tbaa !11
  %182 = icmp slt i32 %180, %181
  br i1 %182, label %183, label %253

183:                                              ; preds = %179
  %184 = load ptr, ptr %13, align 8, !tbaa !48
  %185 = load i32, ptr %8, align 4, !tbaa !11
  %186 = sext i32 %185 to i64
  %187 = getelementptr inbounds i16, ptr %184, i64 %186
  %188 = load i16, ptr %187, align 2, !tbaa !50
  %189 = sext i16 %188 to i32
  %190 = load ptr, ptr %13, align 8, !tbaa !48
  %191 = load i32, ptr %8, align 4, !tbaa !11
  %192 = load i32, ptr %7, align 4, !tbaa !11
  %193 = add nsw i32 %191, %192
  %194 = sub nsw i32 %193, 1
  %195 = sext i32 %194 to i64
  %196 = getelementptr inbounds i16, ptr %190, i64 %195
  %197 = load i16, ptr %196, align 2, !tbaa !50
  %198 = sext i16 %197 to i32
  %199 = load ptr, ptr %13, align 8, !tbaa !48
  %200 = load i32, ptr %8, align 4, !tbaa !11
  %201 = load i32, ptr %7, align 4, !tbaa !11
  %202 = add nsw i32 %200, %201
  %203 = sext i32 %202 to i64
  %204 = getelementptr inbounds i16, ptr %199, i64 %203
  %205 = load i16, ptr %204, align 2, !tbaa !50
  %206 = sext i16 %205 to i32
  %207 = add i32 %198, %206
  %208 = mul i32 217, %207
  %209 = add i32 %208, 2048
  %210 = ashr i32 %209, 12
  %211 = add i32 %189, %210
  store i32 %211, ptr %11, align 4, !tbaa !11
  %212 = load ptr, ptr %13, align 8, !tbaa !48
  %213 = load i32, ptr %8, align 4, !tbaa !11
  %214 = load i32, ptr %7, align 4, !tbaa !11
  %215 = add nsw i32 %213, %214
  %216 = sub nsw i32 %215, 1
  %217 = sext i32 %216 to i64
  %218 = getelementptr inbounds i16, ptr %212, i64 %217
  %219 = load i16, ptr %218, align 2, !tbaa !50
  %220 = sext i16 %219 to i32
  %221 = load i32, ptr %9, align 4, !tbaa !11
  %222 = load i32, ptr %11, align 4, !tbaa !11
  %223 = add i32 %221, %222
  %224 = mul i32 6497, %223
  %225 = add i32 %224, 2048
  %226 = ashr i32 %225, 12
  %227 = add i32 %220, %226
  store i32 %227, ptr %10, align 4, !tbaa !11
  %228 = load i32, ptr %10, align 4, !tbaa !11
  %229 = xor i32 %228, -1
  %230 = ashr i32 %229, 1
  %231 = xor i32 %230, -1
  %232 = trunc i32 %231 to i16
  %233 = load ptr, ptr %12, align 8, !tbaa !48
  %234 = load i32, ptr %8, align 4, !tbaa !11
  %235 = mul nsw i32 2, %234
  %236 = sub nsw i32 %235, 1
  %237 = sext i32 %236 to i64
  %238 = getelementptr inbounds i16, ptr %233, i64 %237
  store i16 %232, ptr %238, align 2, !tbaa !50
  %239 = load i32, ptr %11, align 4, !tbaa !11
  %240 = xor i32 %239, -1
  %241 = ashr i32 %240, 1
  %242 = xor i32 %241, -1
  %243 = trunc i32 %242 to i16
  %244 = load ptr, ptr %12, align 8, !tbaa !48
  %245 = load i32, ptr %8, align 4, !tbaa !11
  %246 = mul nsw i32 2, %245
  %247 = sext i32 %246 to i64
  %248 = getelementptr inbounds i16, ptr %244, i64 %247
  store i16 %243, ptr %248, align 2, !tbaa !50
  %249 = load i32, ptr %11, align 4, !tbaa !11
  store i32 %249, ptr %9, align 4, !tbaa !11
  br label %250

250:                                              ; preds = %183
  %251 = load i32, ptr %8, align 4, !tbaa !11
  %252 = add nsw i32 %251, 1
  store i32 %252, ptr %8, align 4, !tbaa !11
  br label %179, !llvm.loop !85

253:                                              ; preds = %179
  %254 = load ptr, ptr %13, align 8, !tbaa !48
  %255 = load i32, ptr %6, align 4, !tbaa !11
  %256 = sub nsw i32 %255, 1
  %257 = sext i32 %256 to i64
  %258 = getelementptr inbounds i16, ptr %254, i64 %257
  %259 = load i16, ptr %258, align 2, !tbaa !50
  %260 = sext i16 %259 to i32
  %261 = load i32, ptr %11, align 4, !tbaa !11
  %262 = load i32, ptr %11, align 4, !tbaa !11
  %263 = add i32 %261, %262
  %264 = mul i32 6497, %263
  %265 = add i32 %264, 2048
  %266 = ashr i32 %265, 12
  %267 = add i32 %260, %266
  %268 = xor i32 %267, -1
  %269 = lshr i32 %268, 1
  %270 = xor i32 %269, -1
  %271 = trunc i32 %270 to i16
  %272 = load ptr, ptr %12, align 8, !tbaa !48
  %273 = load i32, ptr %6, align 4, !tbaa !11
  %274 = sub nsw i32 %273, 1
  %275 = sext i32 %274 to i64
  %276 = getelementptr inbounds i16, ptr %272, i64 %275
  store i16 %271, ptr %276, align 2, !tbaa !50
  call void @llvm.lifetime.end.p0(i64 8, ptr %13) #5
  call void @llvm.lifetime.end.p0(i64 8, ptr %12) #5
  call void @llvm.lifetime.end.p0(i64 4, ptr %11) #5
  call void @llvm.lifetime.end.p0(i64 4, ptr %10) #5
  call void @llvm.lifetime.end.p0(i64 4, ptr %9) #5
  call void @llvm.lifetime.end.p0(i64 4, ptr %8) #5
  call void @llvm.lifetime.end.p0(i64 4, ptr %7) #5
  ret void
}