; Function Attrs: nofree norecurse nosync nounwind memory(argmem: readwrite) uwtable
define internal void @horizontal_compose_daub97i_8bit(ptr noundef captures(none) %0, ptr noundef captures(none) initializes((0, 2)) %1, i32 noundef %2) #3 {
  %4 = ashr i32 %2, 1
  %5 = load i16, ptr %0, align 2, !tbaa !39
  %6 = sext i32 %4 to i64
  %7 = getelementptr inbounds i16, ptr %0, i64 %6
  %8 = load i16, ptr %7, align 2, !tbaa !39
  %9 = sext i16 %8 to i32
  %10 = mul nsw i32 %9, 3634
  %11 = add nsw i32 %10, 2048
  %12 = lshr i32 %11, 12
  %13 = trunc i32 %12 to i16
  %14 = sub i16 %5, %13
  store i16 %14, ptr %1, align 2, !tbaa !39
  %15 = icmp sgt i32 %4, 1
  br i1 %15, label %.lr.ph.preheader, label %._crit_edge

.lr.ph.preheader:                                 ; preds = %3
  %invariant.op = add nsw i32 %4, -1
  %16 = zext nneg i32 %invariant.op to i64
  %wide.trip.count = zext nneg i32 %4 to i64
  %invariant.gep = getelementptr i16, ptr %0, i64 %6
  br label %.lr.ph

.lr.ph:                                           ; preds = %.lr.ph.preheader, %.lr.ph
  %indvars.iv = phi i64 [ 1, %.lr.ph.preheader ], [ %indvars.iv.next, %.lr.ph ]
  %17 = getelementptr inbounds nuw i16, ptr %0, i64 %indvars.iv
  %18 = load i16, ptr %17, align 2, !tbaa !39
  %19 = add nuw nsw i64 %indvars.iv, %16
  %20 = getelementptr inbounds nuw i16, ptr %0, i64 %19
  %21 = load i16, ptr %20, align 2, !tbaa !39
  %22 = sext i16 %21 to i32
  %gep = getelementptr i16, ptr %invariant.gep, i64 %indvars.iv
  %23 = load i16, ptr %gep, align 2, !tbaa !39
  %24 = sext i16 %23 to i32
  %25 = add nsw i32 %24, %22
  %26 = mul nsw i32 %25, 1817
  %27 = add nsw i32 %26, 2048
  %28 = lshr i32 %27, 12
  %29 = trunc i32 %28 to i16
  %30 = sub i16 %18, %29
  %31 = getelementptr inbounds nuw i16, ptr %1, i64 %indvars.iv
  store i16 %30, ptr %31, align 2, !tbaa !39
  %32 = load i16, ptr %20, align 2, !tbaa !39
  %33 = getelementptr i8, ptr %31, i64 -2
  %34 = load i16, ptr %33, align 2, !tbaa !39
  %35 = sext i16 %34 to i32
  %36 = sext i16 %30 to i32
  %37 = add nsw i32 %36, %35
  %38 = mul nsw i32 %37, 113
  %39 = add nsw i32 %38, 64
  %40 = lshr i32 %39, 7
  %41 = trunc i32 %40 to i16
  %42 = sub i16 %32, %41
  %43 = getelementptr inbounds nuw i16, ptr %1, i64 %19
  store i16 %42, ptr %43, align 2, !tbaa !39
  %indvars.iv.next = add nuw nsw i64 %indvars.iv, 1
  %exitcond.not = icmp eq i64 %indvars.iv.next, %wide.trip.count
  br i1 %exitcond.not, label %._crit_edge, label %.lr.ph, !llvm.loop !68

._crit_edge:                                      ; preds = %.lr.ph, %3
  %44 = add nsw i32 %2, -1
  %45 = sext i32 %44 to i64
  %46 = getelementptr inbounds i16, ptr %0, i64 %45
  %47 = load i16, ptr %46, align 2, !tbaa !39
  %48 = getelementptr i16, ptr %1, i64 %6
  %49 = getelementptr i8, ptr %48, i64 -2
  %50 = load i16, ptr %49, align 2, !tbaa !39
  %51 = sext i16 %50 to i32
  %52 = mul nsw i32 %51, 226
  %53 = add nsw i32 %52, 64
  %54 = lshr i32 %53, 7
  %55 = trunc i32 %54 to i16
  %56 = sub i16 %47, %55
  %57 = getelementptr inbounds i16, ptr %1, i64 %45
  store i16 %56, ptr %57, align 2, !tbaa !39
  %58 = load i16, ptr %1, align 2, !tbaa !39
  %59 = sext i16 %58 to i32
  %60 = load i16, ptr %48, align 2, !tbaa !39
  %61 = sext i16 %60 to i32
  %62 = mul nsw i32 %61, 434
  %63 = add nsw i32 %62, 2048
  %64 = ashr i32 %63, 12
  %65 = add nsw i32 %64, %59
  %66 = lshr i32 %65, 1
  %67 = trunc i32 %66 to i16
  store i16 %67, ptr %0, align 2, !tbaa !39
  br i1 %15, label %.lr.ph84.preheader, label %._crit_edge85

.lr.ph84.preheader:                               ; preds = %._crit_edge
  %68 = zext nneg i32 %4 to i64
  %invariant.gep93 = getelementptr i16, ptr %1, i64 %68
  br label %.lr.ph84

.lr.ph84:                                         ; preds = %.lr.ph84.preheader, %.lr.ph84
  %indvars.iv88 = phi i64 [ 1, %.lr.ph84.preheader ], [ %indvars.iv.next89, %.lr.ph84 ]
  %.07581 = phi i32 [ %65, %.lr.ph84.preheader ], [ %81, %.lr.ph84 ]
  %69 = getelementptr inbounds nuw i16, ptr %1, i64 %indvars.iv88
  %70 = load i16, ptr %69, align 2, !tbaa !39
  %71 = sext i16 %70 to i32
  %gep94 = getelementptr i16, ptr %invariant.gep93, i64 %indvars.iv88
  %72 = getelementptr i8, ptr %gep94, i64 -2
  %73 = load i16, ptr %72, align 2, !tbaa !39
  %74 = sext i16 %73 to i32
  %75 = load i16, ptr %gep94, align 2, !tbaa !39
  %76 = sext i16 %75 to i32
  %77 = add nsw i32 %76, %74
  %78 = mul nsw i32 %77, 217
  %79 = add nsw i32 %78, 2048
  %80 = ashr i32 %79, 12
  %81 = add nsw i32 %80, %71
  %82 = add nsw i32 %81, %.07581
  %.neg79.neg = mul nsw i32 %82, 6497
  %83 = add nsw i32 %.neg79.neg, 2048
  %84 = lshr i32 %83, 12
  %85 = add nsw i32 %84, %74
  %86 = lshr i32 %85, 1
  %87 = trunc i32 %86 to i16
  %.idx = shl i64 %indvars.iv88, 2
  %88 = getelementptr i8, ptr %0, i64 %.idx
  %89 = getelementptr i8, ptr %88, i64 -2
  store i16 %87, ptr %89, align 2, !tbaa !39
  %90 = lshr i32 %81, 1
  %91 = trunc i32 %90 to i16
  store i16 %91, ptr %88, align 2, !tbaa !39
  %indvars.iv.next89 = add nuw nsw i64 %indvars.iv88, 1
  %exitcond92.not = icmp eq i64 %indvars.iv.next89, %68
  br i1 %exitcond92.not, label %._crit_edge85, label %.lr.ph84, !llvm.loop !69

._crit_edge85:                                    ; preds = %.lr.ph84, %._crit_edge
  %.075.lcssa = phi i32 [ %65, %._crit_edge ], [ %81, %.lr.ph84 ]
  %92 = load i16, ptr %57, align 2, !tbaa !39
  %93 = sext i16 %92 to i32
  %.neg = mul i32 %.075.lcssa, 536857918
  %94 = add i32 %.neg, 536868863
  %95 = lshr i32 %94, 12
  %96 = sub nsw i32 %95, %93
  %97 = lshr i32 %96, 1
  %98 = trunc i32 %97 to i16
  %99 = xor i16 %98, -1
  store i16 %99, ptr %46, align 2, !tbaa !39
  ret void
}